; Function Attrs: mustprogress uwtable
define noundef nonnull align 8 dereferenceable(64) ptr @_ZN6icu_758TimeZone9getIanaIDERKNS_13UnicodeStringERS1_R10UErrorCode(ptr noundef nonnull align 8 dereferenceable(64) %id, ptr noundef nonnull returned align 8 dereferenceable(64) %ianaID, ptr noundef nonnull align 4 dereferenceable(4) %status) local_unnamed_addr #0 align 2 personality ptr @__gxx_personality_v0 {
entry:
  %fUnion.i.i = getelementptr inbounds i8, ptr %ianaID, i64 8
  %0 = load i16, ptr %fUnion.i.i, align 8
  %conv2.i3.i = and i16 %0, 1
  %tobool.not.i = icmp eq i16 %conv2.i3.i, 0
  %1 = and i16 %0, 30
  %storemerge.i = select i1 %tobool.not.i, i16 %1, i16 2
  store i16 %storemerge.i, ptr %fUnion.i.i, align 8
  %2 = load i32, ptr %status, align 4
  %cmp.i = icmp slt i32 %2, 1
  br i1 %cmp.i, label %if.end, label %return

if.end:                                           ; preds = %entry
  %fUnion.i.i.i = getelementptr inbounds i8, ptr %id, i64 8
  %3 = load i16, ptr %fUnion.i.i.i, align 8
  %cmp.i.i.i = icmp slt i16 %3, 0
  %4 = ashr i16 %3, 5
  %shr.i.i.i = sext i16 %4 to i32
  %fLength.i.i = getelementptr inbounds i8, ptr %id, i64 12
  %5 = load i32, ptr %fLength.i.i, align 4
  %cond.i.i = select i1 %cmp.i.i.i, i32 %5, i32 %shr.i.i.i
  %call3.i8 = invoke noundef signext i8 @_ZNK6icu_7513UnicodeString9doCompareEiiPKDsii(ptr noundef nonnull align 8 dereferenceable(64) %id, i32 noundef 0, i32 noundef %cond.i.i, ptr noundef nonnull @_ZL15UNKNOWN_ZONE_ID, i32 noundef 0, i32 noundef 11)
          to label %invoke.cont unwind label %lpad

invoke.cont:                                      ; preds = %if.end
  %cmp = icmp eq i8 %call3.i8, 0
  tail call void asm sideeffect "", "rm,~{memory},~{dirflag},~{fpsr},~{flags}"(ptr nonnull @_ZL15UNKNOWN_ZONE_ID) #18, !srcloc !4
  br i1 %cmp, label %if.then3, label %if.else

if.then3:                                         ; preds = %invoke.cont
  store i32 1, ptr %status, align 4
  tail call void @_ZN6icu_7513UnicodeString10setToBogusEv(ptr noundef nonnull align 8 dereferenceable(64) %ianaID)
  br label %return

lpad:                                             ; preds = %if.end
  %6 = landingpad { ptr, i32 }
          cleanup
  tail call void asm sideeffect "", "rm,~{memory},~{dirflag},~{fpsr},~{flags}"(ptr nonnull @_ZL15UNKNOWN_ZONE_ID) #18, !srcloc !4
  resume { ptr, i32 } %6

if.else:                                          ; preds = %invoke.cont
  %call4 = tail call noundef nonnull align 8 dereferenceable(64) ptr @_ZN6icu_758ZoneMeta9getIanaIDERKNS_13UnicodeStringERS1_R10UErrorCode(ptr noundef nonnull align 8 dereferenceable(64) %id, ptr noundef nonnull align 8 dereferenceable(64) %ianaID, ptr noundef nonnull align 4 dereferenceable(4) %status)
  br label %return

return:                                           ; preds = %if.then3, %if.else, %entry
  ret ptr %ianaID
}